target datalayout = "e-m:e-p270:32:32-p271:32:32-p272:64:64-i64:64-i128:128-f80:128-n8:16:32:64-S128"
target triple = "x86_64-pc-linux-gnu"

%struct.expert_field = type { i32, i32 }
%struct._c_pkt_data = type { ptr, ptr, ptr, ptr, ptr, ptr, %struct._c_header }
%struct._c_header = type { i64, i64, i32, i16, i16, %struct._c_node_name }
%struct._c_node_name = type { ptr, ptr, i64, i32 }
%struct._c_str = type { ptr, i32 }
%struct._c_encoded = type { i8, i8, i32, i32 }

@hf_string_data = internal global i32 0, align 4
@hf_string_size = internal global i32 0, align 4
@hf_statcollection = internal global i32 0, align 4
@ett_str = internal global i32 0, align 4
@ett_statcollection = internal global i32 0, align 4
@ei_unused = internal global %struct.expert_field zeroinitializer, align 4
@ei_overrun = internal global %struct.expert_field zeroinitializer, align 4
@.str.1584 = private unnamed_addr constant [1 x i8] zeroinitializer, align 1
@.str.1586 = private unnamed_addr constant [30 x i8] c"epan/dissectors/packet-ceph.c\00", align 1
@.str.1704 = private unnamed_addr constant [50 x i8] c"%s:%u: failed assertion start <= end (%lu <= %lu)\00", align 1
@.str.1705 = private unnamed_addr constant [17 x i8] c"%u unused byte%s\00", align 1
@.str.1706 = private unnamed_addr constant [2 x i8] c"s\00", align 1
@.str.1707 = private unnamed_addr constant [18 x i8] c"%u overrun byte%s\00", align 1

; Function Attrs: null_pointer_is_valid sspstrong uwtable
define internal zeroext i1 @c_warn_overrun(ptr noundef %0, ptr noundef %1, i32 noundef %2, i32 noundef %3, ptr noundef %4) #0 {
  %6 = alloca i1, align 1
  %7 = alloca ptr, align 8
  %8 = alloca ptr, align 8
  %9 = alloca i32, align 4
  %10 = alloca i32, align 4
  %11 = alloca ptr, align 8
  %12 = alloca i32, align 4
  %13 = alloca i32, align 4
  store ptr %0, ptr %7, align 8
  store ptr %1, ptr %8, align 8
  store i32 %2, ptr %9, align 4
  store i32 %3, ptr %10, align 4
  store ptr %4, ptr %11, align 8
  call void @llvm.lifetime.start.p0(i64 4, ptr %12) #14
  %14 = load i32, ptr %9, align 4
  %15 = load i32, ptr %10, align 4
  %16 = icmp ule i32 %14, %15
  br i1 %16, label %17, label %18

17:                                               ; preds = %5
  br label %24

18:                                               ; preds = %5
  %19 = load i32, ptr %9, align 4
  %20 = zext i32 %19 to i64
  %21 = load i32, ptr %10, align 4
  %22 = zext i32 %21 to i64
  call void (ptr, ...) @proto_report_dissector_bug(ptr noundef @.str.1704, ptr noundef @.str.1586, i32 noundef 1696, i64 noundef %20, i64 noundef %22) #15
  unreachable

23:                                               ; No predecessors!
  br label %24

24:                                               ; preds = %23, %17
  %25 = load i32, ptr %10, align 4
  %26 = load i32, ptr %9, align 4
  %27 = sub i32 %25, %26
  store i32 %27, ptr %12, align 4
  %28 = load i32, ptr %12, align 4
  %29 = icmp ne i32 %28, 0
  br i1 %29, label %31, label %30

30:                                               ; preds = %24
  store i1 false, ptr %6, align 1
  store i32 1, ptr %13, align 4
  br label %44

31:                                               ; preds = %24
  %32 = load ptr, ptr %7, align 8
  %33 = load ptr, ptr %11, align 8
  %34 = getelementptr inbounds nuw %struct._c_pkt_data, ptr %33, i32 0, i32 5
  %35 = load ptr, ptr %34, align 8
  %36 = load ptr, ptr %8, align 8
  %37 = load i32, ptr %9, align 4
  %38 = load i32, ptr %12, align 4
  %39 = load i32, ptr %12, align 4
  %40 = load i32, ptr %12, align 4
  %41 = icmp eq i32 %40, 1
  %42 = select i1 %41, ptr @.str.1584, ptr @.str.1706
  %43 = call ptr (ptr, ptr, ptr, ptr, i32, i32, ptr, ...) @proto_tree_add_expert_format(ptr noundef %32, ptr noundef %35, ptr noundef @ei_overrun, ptr noundef %36, i32 noundef %37, i32 noundef %38, ptr noundef @.str.1707, i32 noundef %39, ptr noundef %42)
  store i1 true, ptr %6, align 1
  store i32 1, ptr %13, align 4
  br label %44

44:                                               ; preds = %31, %30
  call void @llvm.lifetime.end.p0(i64 4, ptr %12) #14
  %45 = load i1, ptr %6, align 1
  ret i1 %45
}

; Function Attrs: null_pointer_is_valid sspstrong uwtable
define internal zeroext i1 @c_warn_unused(ptr noundef %0, ptr noundef %1, i32 noundef %2, i32 noundef %3, ptr noundef %4) #0 {
  %6 = alloca i1, align 1
  %7 = alloca ptr, align 8
  %8 = alloca ptr, align 8
  %9 = alloca i32, align 4
  %10 = alloca i32, align 4
  %11 = alloca ptr, align 8
  %12 = alloca i32, align 4
  %13 = alloca i32, align 4
  store ptr %0, ptr %7, align 8
  store ptr %1, ptr %8, align 8
  store i32 %2, ptr %9, align 4
  store i32 %3, ptr %10, align 4
  store ptr %4, ptr %11, align 8
  call void @llvm.lifetime.start.p0(i64 4, ptr %12) #14
  %14 = load i32, ptr %9, align 4
  %15 = load i32, ptr %10, align 4
  %16 = icmp ule i32 %14, %15
  br i1 %16, label %17, label %18

17:                                               ; preds = %5
  br label %24

18:                                               ; preds = %5
  %19 = load i32, ptr %9, align 4
  %20 = zext i32 %19 to i64
  %21 = load i32, ptr %10, align 4
  %22 = zext i32 %21 to i64
  call void (ptr, ...) @proto_report_dissector_bug(ptr noundef @.str.1704, ptr noundef @.str.1586, i32 noundef 1667, i64 noundef %20, i64 noundef %22) #15
  unreachable

23:                                               ; No predecessors!
  br label %24

24:                                               ; preds = %23, %17
  %25 = load i32, ptr %10, align 4
  %26 = load i32, ptr %9, align 4
  %27 = sub i32 %25, %26
  store i32 %27, ptr %12, align 4
  %28 = load i32, ptr %12, align 4
  %29 = icmp ne i32 %28, 0
  br i1 %29, label %31, label %30

30:                                               ; preds = %24
  store i1 false, ptr %6, align 1
  store i32 1, ptr %13, align 4
  br label %44

31:                                               ; preds = %24
  %32 = load ptr, ptr %7, align 8
  %33 = load ptr, ptr %11, align 8
  %34 = getelementptr inbounds nuw %struct._c_pkt_data, ptr %33, i32 0, i32 5
  %35 = load ptr, ptr %34, align 8
  %36 = load ptr, ptr %8, align 8
  %37 = load i32, ptr %9, align 4
  %38 = load i32, ptr %12, align 4
  %39 = load i32, ptr %12, align 4
  %40 = load i32, ptr %12, align 4
  %41 = icmp eq i32 %40, 1
  %42 = select i1 %41, ptr @.str.1584, ptr @.str.1706
  %43 = call ptr (ptr, ptr, ptr, ptr, i32, i32, ptr, ...) @proto_tree_add_expert_format(ptr noundef %32, ptr noundef %35, ptr noundef @ei_unused, ptr noundef %36, i32 noundef %37, i32 noundef %38, ptr noundef @.str.1705, i32 noundef %39, ptr noundef %42)
  store i1 true, ptr %6, align 1
  store i32 1, ptr %13, align 4
  br label %44

44:                                               ; preds = %31, %30
  call void @llvm.lifetime.end.p0(i64 4, ptr %12) #14
  %45 = load i1, ptr %6, align 1
  ret i1 %45
}

; Function Attrs: null_pointer_is_valid sspstrong uwtable
define internal zeroext i1 @c_warn_size(ptr noundef %0, ptr noundef %1, i32 noundef %2, i32 noundef %3, ptr noundef %4) #0 {
  %6 = alloca i1, align 1
  %7 = alloca ptr, align 8
  %8 = alloca ptr, align 8
  %9 = alloca i32, align 4
  %10 = alloca i32, align 4
  %11 = alloca ptr, align 8
  store ptr %0, ptr %7, align 8
  store ptr %1, ptr %8, align 8
  store i32 %2, ptr %9, align 4
  store i32 %3, ptr %10, align 4
  store ptr %4, ptr %11, align 8
  %12 = load i32, ptr %9, align 4
  %13 = load i32, ptr %10, align 4
  %14 = icmp ult i32 %12, %13
  br i1 %14, label %15, label %22

15:                                               ; preds = %5
  %16 = load ptr, ptr %7, align 8
  %17 = load ptr, ptr %8, align 8
  %18 = load i32, ptr %9, align 4
  %19 = load i32, ptr %10, align 4
  %20 = load ptr, ptr %11, align 8
  %21 = call zeroext i1 @c_warn_unused(ptr noundef %16, ptr noundef %17, i32 noundef %18, i32 noundef %19, ptr noundef %20)
  store i1 %21, ptr %6, align 1
  br label %29

22:                                               ; preds = %5
  %23 = load ptr, ptr %7, align 8
  %24 = load ptr, ptr %8, align 8
  %25 = load i32, ptr %10, align 4
  %26 = load i32, ptr %9, align 4
  %27 = load ptr, ptr %11, align 8
  %28 = call zeroext i1 @c_warn_overrun(ptr noundef %23, ptr noundef %24, i32 noundef %25, i32 noundef %26, ptr noundef %27)
  store i1 %28, ptr %6, align 1
  br label %29

29:                                               ; preds = %22, %15
  %30 = load i1, ptr %6, align 1
  ret i1 %30
}

; Function Attrs: null_pointer_is_valid sspstrong uwtable
define internal i32 @c_dissect_str(ptr noundef %0, i32 noundef %1, ptr noundef %2, ptr noundef %3, i32 noundef %4) #0 {
  %6 = alloca ptr, align 8
  %7 = alloca i32, align 4
  %8 = alloca ptr, align 8
  %9 = alloca ptr, align 8
  %10 = alloca i32, align 4
  %11 = alloca ptr, align 8
  %12 = alloca ptr, align 8
  %13 = alloca %struct._c_str, align 8
  store ptr %0, ptr %6, align 8
  store i32 %1, ptr %7, align 4
  store ptr %2, ptr %8, align 8
  store ptr %3, ptr %9, align 8
  store i32 %4, ptr %10, align 4
  call void @llvm.lifetime.start.p0(i64 8, ptr %11) #14
  call void @llvm.lifetime.start.p0(i64 8, ptr %12) #14
  call void @llvm.lifetime.start.p0(i64 16, ptr %13) #14
  %14 = load ptr, ptr %9, align 8
  %15 = load i32, ptr %10, align 4
  %16 = call i32 @tvb_get_letohl(ptr noundef %14, i32 noundef %15)
  %17 = getelementptr inbounds nuw %struct._c_str, ptr %13, i32 0, i32 1
  store i32 %16, ptr %17, align 8
  %18 = call ptr @wmem_packet_scope()
  %19 = load ptr, ptr %9, align 8
  %20 = load i32, ptr %10, align 4
  %21 = add i32 %20, 4
  %22 = getelementptr inbounds nuw %struct._c_str, ptr %13, i32 0, i32 1
  %23 = load i32, ptr %22, align 8
  %24 = call ptr @tvb_get_string_enc(ptr noundef %18, ptr noundef %19, i32 noundef %21, i32 noundef %23, i32 noundef 0)
  %25 = getelementptr inbounds nuw %struct._c_str, ptr %13, i32 0, i32 0
  store ptr %24, ptr %25, align 8
  %26 = load ptr, ptr %6, align 8
  %27 = load i32, ptr %7, align 4
  %28 = load ptr, ptr %9, align 8
  %29 = load i32, ptr %10, align 4
  %30 = getelementptr inbounds nuw %struct._c_str, ptr %13, i32 0, i32 1
  %31 = load i32, ptr %30, align 8
  %32 = add i32 4, %31
  %33 = getelementptr inbounds nuw %struct._c_str, ptr %13, i32 0, i32 0
  %34 = load ptr, ptr %33, align 8
  %35 = call ptr @proto_tree_add_string(ptr noundef %26, i32 noundef %27, ptr noundef %28, i32 noundef %29, i32 noundef %32, ptr noundef %34)
  store ptr %35, ptr %11, align 8
  %36 = load ptr, ptr %11, align 8
  %37 = load i32, ptr @ett_str, align 4
  %38 = call ptr @proto_item_add_subtree(ptr noundef %36, i32 noundef %37)
  store ptr %38, ptr %12, align 8
  %39 = load ptr, ptr %12, align 8
  %40 = load i32, ptr @hf_string_size, align 4
  %41 = load ptr, ptr %9, align 8
  %42 = load i32, ptr %10, align 4
  %43 = call ptr @proto_tree_add_item(ptr noundef %39, i32 noundef %40, ptr noundef %41, i32 noundef %42, i32 noundef 4, i32 noundef -2147483648)
  %44 = load i32, ptr %10, align 4
  %45 = add i32 %44, 4
  store i32 %45, ptr %10, align 4
  %46 = load ptr, ptr %12, align 8
  %47 = load i32, ptr @hf_string_data, align 4
  %48 = load ptr, ptr %9, align 8
  %49 = load i32, ptr %10, align 4
  %50 = getelementptr inbounds nuw %struct._c_str, ptr %13, i32 0, i32 1
  %51 = load i32, ptr %50, align 8
  %52 = call ptr @proto_tree_add_item(ptr noundef %46, i32 noundef %47, ptr noundef %48, i32 noundef %49, i32 noundef %51, i32 noundef 2)
  %53 = getelementptr inbounds nuw %struct._c_str, ptr %13, i32 0, i32 1
  %54 = load i32, ptr %53, align 8
  %55 = load i32, ptr %10, align 4
  %56 = add i32 %55, %54
  store i32 %56, ptr %10, align 4
  %57 = load ptr, ptr %8, align 8
  %58 = icmp ne ptr %57, null
  br i1 %58, label %59, label %61

59:                                               ; preds = %5
  %60 = load ptr, ptr %8, align 8
  call void @llvm.memcpy.p0.p0.i64(ptr align 8 %60, ptr align 8 %13, i64 16, i1 false)
  br label %61

61:                                               ; preds = %59, %5
  %62 = load i32, ptr %10, align 4
  call void @llvm.lifetime.end.p0(i64 16, ptr %13) #14
  call void @llvm.lifetime.end.p0(i64 8, ptr %12) #14
  call void @llvm.lifetime.end.p0(i64 8, ptr %11) #14
  ret i32 %62
}

; Function Attrs: null_pointer_is_valid sspstrong uwtable
define internal i32 @c_dissect_statcollection(ptr noundef %0, i32 noundef %1, ptr noundef %2, i32 noundef %3, ptr noundef %4) #0 {
  %6 = alloca ptr, align 8
  %7 = alloca i32, align 4
  %8 = alloca ptr, align 8
  %9 = alloca i32, align 4
  %10 = alloca ptr, align 8
  %11 = alloca ptr, align 8
  %12 = alloca ptr, align 8
  %13 = alloca %struct._c_encoded, align 4
  %14 = alloca i32, align 4
  store ptr %0, ptr %6, align 8
  store i32 %1, ptr %7, align 4
  store ptr %2, ptr %8, align 8
  store i32 %3, ptr %9, align 4
  store ptr %4, ptr %10, align 8
  call void @llvm.lifetime.start.p0(i64 8, ptr %11) #14
  call void @llvm.lifetime.start.p0(i64 8, ptr %12) #14
  call void @llvm.lifetime.start.p0(i64 12, ptr %13) #14
  call void @llvm.lifetime.start.p0(i64 4, ptr %14) #14
  %15 = load ptr, ptr %6, align 8
  %16 = load i32, ptr @hf_statcollection, align 4
  %17 = load ptr, ptr %8, align 8
  %18 = load i32, ptr %9, align 4
  %19 = call ptr @proto_tree_add_item(ptr noundef %15, i32 noundef %16, ptr noundef %17, i32 noundef %18, i32 noundef -1, i32 noundef 0)
  store ptr %19, ptr %11, align 8
  %20 = load ptr, ptr %11, align 8
  %21 = load i32, ptr @ett_statcollection, align 4
  %22 = call ptr @proto_item_add_subtree(ptr noundef %20, i32 noundef %21)
  store ptr %22, ptr %12, align 8
  %23 = load ptr, ptr %12, align 8
  %24 = load ptr, ptr %8, align 8
  %25 = load i32, ptr %9, align 4
  %26 = load ptr, ptr %10, align 8
  %27 = call i32 @c_dissect_encoded(ptr noundef %23, ptr noundef %13, i8 noundef zeroext 2, i8 noundef zeroext 2, ptr noundef %24, i32 noundef %25, ptr noundef %26)
  store i32 %27, ptr %9, align 4
  %28 = load ptr, ptr %12, align 8
  %29 = load ptr, ptr %8, align 8
  %30 = load i32, ptr %9, align 4
  %31 = load ptr, ptr %10, align 8
  %32 = call i32 @c_dissect_statsum(ptr noundef %28, ptr noundef %29, i32 noundef %30, ptr noundef %31)
  store i32 %32, ptr %9, align 4
  %33 = load ptr, ptr %8, align 8
  %34 = load i32, ptr %9, align 4
  %35 = call i32 @tvb_get_letohl(ptr noundef %33, i32 noundef %34)
  store i32 %35, ptr %14, align 4
  %36 = load i32, ptr %9, align 4
  %37 = add i32 %36, 4
  store i32 %37, ptr %9, align 4
  br label %38

38:                                               ; preds = %42, %5
  %39 = load i32, ptr %14, align 4
  %40 = add i32 %39, -1
  store i32 %40, ptr %14, align 4
  %41 = icmp ne i32 %39, 0
  br i1 %41, label %42, label %53

42:                                               ; preds = %38
  %43 = load ptr, ptr %12, align 8
  %44 = load i32, ptr %7, align 4
  %45 = load ptr, ptr %8, align 8
  %46 = load i32, ptr %9, align 4
  %47 = call i32 @c_dissect_str(ptr noundef %43, i32 noundef %44, ptr noundef null, ptr noundef %45, i32 noundef %46)
  store i32 %47, ptr %9, align 4
  %48 = load ptr, ptr %12, align 8
  %49 = load ptr, ptr %8, align 8
  %50 = load i32, ptr %9, align 4
  %51 = load ptr, ptr %10, align 8
  %52 = call i32 @c_dissect_statsum(ptr noundef %48, ptr noundef %49, i32 noundef %50, ptr noundef %51)
  store i32 %52, ptr %9, align 4
  br label %38, !llvm.loop !58

53:                                               ; preds = %38
  %54 = load ptr, ptr %12, align 8
  %55 = load ptr, ptr %8, align 8
  %56 = load i32, ptr %9, align 4
  %57 = getelementptr inbounds nuw %struct._c_encoded, ptr %13, i32 0, i32 3
  %58 = load i32, ptr %57, align 4
  %59 = load ptr, ptr %10, align 8
  %60 = call zeroext i1 @c_warn_size(ptr noundef %54, ptr noundef %55, i32 noundef %56, i32 noundef %58, ptr noundef %59)
  %61 = getelementptr inbounds nuw %struct._c_encoded, ptr %13, i32 0, i32 3
  %62 = load i32, ptr %61, align 4
  store i32 %62, ptr %9, align 4
  %63 = load ptr, ptr %11, align 8
  %64 = load ptr, ptr %8, align 8
  %65 = load i32, ptr %9, align 4
  call void @proto_item_set_end(ptr noundef %63, ptr noundef %64, i32 noundef %65)
  %66 = load i32, ptr %9, align 4
  call void @llvm.lifetime.end.p0(i64 4, ptr %14) #14
  call void @llvm.lifetime.end.p0(i64 12, ptr %13) #14
  call void @llvm.lifetime.end.p0(i64 8, ptr %12) #14
  call void @llvm.lifetime.end.p0(i64 8, ptr %11) #14
  ret i32 %66
}