; Function Attrs: null_pointer_is_valid sspstrong uwtable
define internal fastcc noundef i32 @c_dissect_statcollection(ptr noundef %0, i32 noundef %1, ptr noundef %2, i32 noundef %3, ptr noundef readonly captures(none) %4) unnamed_addr #0 {
  %6 = alloca %struct._c_encoded, align 4
  call void @llvm.lifetime.start.p0(i64 12, ptr nonnull %6) #10
  %7 = load i32, ptr @hf_statcollection, align 4
  %8 = tail call ptr @proto_tree_add_item(ptr noundef %0, i32 noundef %7, ptr noundef %2, i32 noundef %3, i32 noundef -1, i32 noundef 0)
  %9 = load i32, ptr @ett_statcollection, align 4
  %10 = tail call ptr @proto_item_add_subtree(ptr noundef %8, i32 noundef %9)
  %11 = call fastcc i32 @c_dissect_encoded(ptr noundef %10, ptr noundef nonnull %6, i8 noundef zeroext 2, i8 noundef zeroext 2, ptr noundef %2, i32 noundef %3, ptr noundef %4)
  %12 = call fastcc i32 @c_dissect_statsum(ptr noundef %10, ptr noundef %2, i32 noundef %11, ptr noundef %4)
  %13 = call i32 @tvb_get_letohl(ptr noundef %2, i32 noundef %12)
  %14 = add i32 %12, 4
  %.not32 = icmp eq i32 %13, 0
  br i1 %.not32, label %._crit_edge, label %.lr.ph

.lr.ph:                                           ; preds = %5, %.lr.ph
  %.034 = phi i32 [ %15, %.lr.ph ], [ %13, %5 ]
  %.03133 = phi i32 [ %29, %.lr.ph ], [ %14, %5 ]
  %15 = add i32 %.034, -1
  %16 = call i32 @tvb_get_letohl(ptr noundef %2, i32 noundef %.03133)
  %17 = call ptr @wmem_packet_scope()
  %18 = add i32 %.03133, 4
  %19 = call ptr @tvb_get_string_enc(ptr noundef %17, ptr noundef %2, i32 noundef %18, i32 noundef %16, i32 noundef 0)
  %20 = add i32 %16, 4
  %21 = call ptr @proto_tree_add_string(ptr noundef %10, i32 noundef %1, ptr noundef %2, i32 noundef %.03133, i32 noundef %20, ptr noundef %19)
  %22 = load i32, ptr @ett_str, align 4
  %23 = call ptr @proto_item_add_subtree(ptr noundef %21, i32 noundef %22)
  %24 = load i32, ptr @hf_string_size, align 4
  %25 = call ptr @proto_tree_add_item(ptr noundef %23, i32 noundef %24, ptr noundef %2, i32 noundef %.03133, i32 noundef 4, i32 noundef -2147483648)
  %26 = load i32, ptr @hf_string_data, align 4
  %27 = call ptr @proto_tree_add_item(ptr noundef %23, i32 noundef %26, ptr noundef %2, i32 noundef %18, i32 noundef %16, i32 noundef 2)
  %28 = add i32 %16, %18
  %29 = call fastcc i32 @c_dissect_statsum(ptr noundef %10, ptr noundef %2, i32 noundef %28, ptr noundef %4)
  %.not = icmp eq i32 %15, 0
  br i1 %.not, label %._crit_edge, label %.lr.ph, !llvm.loop !62

._crit_edge:                                      ; preds = %.lr.ph, %5
  %.031.lcssa = phi i32 [ %14, %5 ], [ %29, %.lr.ph ]
  %30 = getelementptr inbounds nuw i8, ptr %6, i64 8
  %31 = load i32, ptr %30, align 4
  %32 = icmp ult i32 %.031.lcssa, %31
  br i1 %32, label %c_warn_unused.exit.i, label %39

c_warn_unused.exit.i:                             ; preds = %._crit_edge
  %33 = sub nuw i32 %31, %.031.lcssa
  %34 = getelementptr inbounds nuw i8, ptr %4, i64 40
  %35 = load ptr, ptr %34, align 8
  %36 = icmp eq i32 %33, 1
  %37 = select i1 %36, ptr @.str.1584, ptr @.str.1706
  %38 = call ptr (ptr, ptr, ptr, ptr, i32, i32, ptr, ...) @proto_tree_add_expert_format(ptr noundef %10, ptr noundef %35, ptr noundef nonnull @ei_unused, ptr noundef %2, i32 noundef %.031.lcssa, i32 noundef %33, ptr noundef nonnull @.str.1705, i32 noundef %33, ptr noundef nonnull %37)
  br label %c_warn_size.exit

39:                                               ; preds = %._crit_edge
  %.not18.i16.not.i = icmp eq i32 %.031.lcssa, %31
  br i1 %.not18.i16.not.i, label %c_warn_size.exit, label %40

40:                                               ; preds = %39
  %41 = sub nuw i32 %.031.lcssa, %31
  %42 = getelementptr inbounds nuw i8, ptr %4, i64 40
  %43 = load ptr, ptr %42, align 8
  %44 = icmp eq i32 %41, 1
  %45 = select i1 %44, ptr @.str.1584, ptr @.str.1706
  %46 = call ptr (ptr, ptr, ptr, ptr, i32, i32, ptr, ...) @proto_tree_add_expert_format(ptr noundef %10, ptr noundef %43, ptr noundef nonnull @ei_overrun, ptr noundef %2, i32 noundef %31, i32 noundef %41, ptr noundef nonnull @.str.1707, i32 noundef %41, ptr noundef nonnull %45)
  br label %c_warn_size.exit

c_warn_size.exit:                                 ; preds = %c_warn_unused.exit.i, %39, %40
  %47 = load i32, ptr %30, align 4
  call void @proto_item_set_end(ptr noundef %8, ptr noundef %2, i32 noundef %47)
  call void @llvm.lifetime.end.p0(i64 12, ptr nonnull %6) #10
  ret i32 %47
}